; Function Attrs: mustprogress nounwind uwtable
define internal fastcc void @_ZN12_GLOBAL__N_114ODRDeclVisitor25VisitFunctionTemplateDeclEPKN5clang20FunctionTemplateDeclE(ptr noundef nonnull readonly align 8 captures(none) dereferenceable(16) %0, ptr noundef %1) unnamed_addr #0 align 2 {
  %3 = getelementptr inbounds nuw i8, ptr %1, i64 48
  %4 = load ptr, ptr %3, align 8
  tail call fastcc void @_ZN12_GLOBAL__N_114ODRDeclVisitor7AddDeclEPKN5clang4DeclE(ptr noundef nonnull align 8 dereferenceable(16) %0, ptr noundef %4)
  %5 = load ptr, ptr %0, align 8
  %6 = load ptr, ptr %3, align 8
  %7 = tail call noundef i32 @_ZN5clang12FunctionDecl10getODRHashEv(ptr noundef nonnull align 8 dereferenceable(168) %6) #14
  %8 = tail call noundef i64 @_ZNK4llvm15SmallVectorBaseIjE4sizeEv(ptr noundef nonnull align 8 dereferenceable(144) %5) #14
  %9 = add i64 %8, 1
  %10 = tail call noundef i64 @_ZNK4llvm15SmallVectorBaseIjE8capacityEv(ptr noundef nonnull align 8 dereferenceable(144) %5) #14
  %.not.i.i.i.i = icmp ugt i64 %9, %10
  br i1 %.not.i.i.i.i, label %11, label %_ZN4llvm16FoldingSetNodeID10AddIntegerEj.exit

11:                                               ; preds = %2
  %12 = getelementptr inbounds nuw i8, ptr %5, i64 16
  tail call void @_ZN4llvm15SmallVectorBaseIjE8grow_podEPvmm(ptr noundef nonnull align 8 dereferenceable(144) %5, ptr noundef nonnull %12, i64 noundef %9, i64 noundef 4) #14
  br label %_ZN4llvm16FoldingSetNodeID10AddIntegerEj.exit

_ZN4llvm16FoldingSetNodeID10AddIntegerEj.exit:    ; preds = %2, %11
  %13 = load ptr, ptr %5, align 8
  %14 = tail call noundef i64 @_ZNK4llvm15SmallVectorBaseIjE4sizeEv(ptr noundef nonnull align 8 dereferenceable(144) %5) #14
  %15 = getelementptr inbounds i32, ptr %13, i64 %14
  store i32 %7, ptr %15, align 1
  %16 = tail call noundef i64 @_ZNK4llvm15SmallVectorBaseIjE4sizeEv(ptr noundef nonnull align 8 dereferenceable(144) %5) #14
  %17 = add i64 %16, 1
  tail call void @_ZN4llvm15SmallVectorBaseIjE8set_sizeEm(ptr noundef nonnull align 8 dereferenceable(144) %5, i64 noundef %17) #14
  tail call fastcc void @_ZN12_GLOBAL__N_114ODRDeclVisitor29VisitRedeclarableTemplateDeclEPKN5clang24RedeclarableTemplateDeclE(ptr noundef nonnull align 8 dereferenceable(16) %0, ptr noundef nonnull %1)
  ret void
}